; Function Attrs: nounwind uwtable
define hidden void @_PyErr_SetHandledException(ptr noundef readonly captures(none) %0, ptr noundef %1) local_unnamed_addr #0 {
  %3 = getelementptr inbounds nuw i8, ptr %0, i64 120
  %4 = load ptr, ptr %3, align 8, !tbaa !38
  %5 = load ptr, ptr %4, align 8, !tbaa !24
  %6 = icmp eq ptr %1, @_Py_NoneStruct
  %7 = select i1 %6, ptr null, ptr %1
  %.not.i.i = icmp eq ptr %7, null
  br i1 %.not.i.i, label %_Py_XNewRef.exit, label %8

8:                                                ; preds = %2
  %9 = load i32, ptr %7, align 8, !tbaa !20
  %10 = icmp slt i32 %9, 0
  br i1 %10, label %_Py_XNewRef.exit, label %11

11:                                               ; preds = %8
  %12 = add nuw i32 %9, 1
  store i32 %12, ptr %7, align 8, !tbaa !20
  br label %_Py_XNewRef.exit

_Py_XNewRef.exit:                                 ; preds = %2, %8, %11
  store ptr %7, ptr %4, align 8, !tbaa !24
  %.not.i = icmp eq ptr %5, null
  br i1 %.not.i, label %Py_XDECREF.exit, label %13

13:                                               ; preds = %_Py_XNewRef.exit
  %14 = load i32, ptr %5, align 8, !tbaa !20
  %.not.i.i6 = icmp sgt i32 %14, -1
  br i1 %.not.i.i6, label %15, label %Py_XDECREF.exit

15:                                               ; preds = %13
  %16 = add nsw i32 %14, -1
  store i32 %16, ptr %5, align 8, !tbaa !20
  %17 = icmp eq i32 %16, 0
  br i1 %17, label %18, label %Py_XDECREF.exit

18:                                               ; preds = %15
  tail call void @_Py_Dealloc(ptr noundef nonnull %5) #17
  br label %Py_XDECREF.exit

Py_XDECREF.exit:                                  ; preds = %_Py_XNewRef.exit, %13, %15, %18
  ret void
}